target datalayout = "e-m:e-p270:32:32-p271:32:32-p272:64:64-i64:64-f80:128-n8:16:32:64-S128"
target triple = "x86_64-pc-linux-gnu"

%struct.book = type { i32, [20 x i8] }

@.str = private unnamed_addr constant [3 x i8] c"%d\00", align 1
@.str.1 = private unnamed_addr constant [6 x i8] c"%d %s\00", align 1
@.str.2 = private unnamed_addr constant [4 x i8] c"%c\0A\00", align 1
@.str.3 = private unnamed_addr constant [4 x i8] c"%d\0A\00", align 1

; Function Attrs: noinline nounwind uwtable
define dso_local void @main() #0 {
  %1 = alloca [1000 x %struct.book], align 16
  %2 = alloca i32, align 4
  %3 = alloca i32, align 4
  %4 = alloca i32, align 4
  %5 = alloca i32, align 4
  %6 = alloca i32, align 4
  %7 = alloca i32, align 4
  %8 = alloca [26 x i32], align 16
  %9 = alloca i32, align 4
  %10 = alloca [26 x i32], align 16
  %11 = bitcast [26 x i32]* %10 to i8*
  call void @llvm.memset.p0i8.i64(i8* align 16 %11, i8 0, i64 104, i1 false)
  %12 = call i32 (i8*, ...) @__isoc99_scanf(i8* getelementptr inbounds ([3 x i8], [3 x i8]* @.str, i64 0, i64 0), i32* %4)
  store i32 0, i32* %5, align 4
  br label %13

13:                                               ; preds = %73, %0
  %14 = load i32, i32* %5, align 4
  %15 = load i32, i32* %4, align 4
  %16 = icmp slt i32 %14, %15
  br i1 %16, label %17, label %76

17:                                               ; preds = %13
  %18 = load i32, i32* %5, align 4
  %19 = sext i32 %18 to i64
  %20 = getelementptr inbounds [1000 x %struct.book], [1000 x %struct.book]* %1, i64 0, i64 %19
  %21 = getelementptr inbounds %struct.book, %struct.book* %20, i32 0, i32 0
  %22 = load i32, i32* %5, align 4
  %23 = sext i32 %22 to i64
  %24 = getelementptr inbounds [1000 x %struct.book], [1000 x %struct.book]* %1, i64 0, i64 %23
  %25 = getelementptr inbounds %struct.book, %struct.book* %24, i32 0, i32 1
  %26 = getelementptr inbounds [20 x i8], [20 x i8]* %25, i64 0, i64 0
  %27 = call i32 (i8*, ...) @__isoc99_scanf(i8* getelementptr inbounds ([6 x i8], [6 x i8]* @.str.1, i64 0, i64 0), i32* %21, i8* %26)
  store i32 0, i32* %2, align 4
  br label %28

28:                                               ; preds = %69, %17
  %29 = load i32, i32* %2, align 4
  %30 = sext i32 %29 to i64
  %31 = load i32, i32* %5, align 4
  %32 = sext i32 %31 to i64
  %33 = getelementptr inbounds [1000 x %struct.book], [1000 x %struct.book]* %1, i64 0, i64 %32
  %34 = getelementptr inbounds %struct.book, %struct.book* %33, i32 0, i32 1
  %35 = getelementptr inbounds [20 x i8], [20 x i8]* %34, i64 0, i64 0
  %36 = call i64 @strlen(i8* %35) #4
  %37 = icmp ult i64 %30, %36
  br i1 %37, label %38, label %72

38:                                               ; preds = %28
  store i32 0, i32* %3, align 4
  br label %39

39:                                               ; preds = %57, %38
  %40 = load i32, i32* %3, align 4
  %41 = icmp slt i32 %40, 26
  br i1 %41, label %42, label %60

42:                                               ; preds = %39
  %43 = load i32, i32* %3, align 4
  %44 = add nsw i32 65, %43
  %45 = load i32, i32* %5, align 4
  %46 = sext i32 %45 to i64
  %47 = getelementptr inbounds [1000 x %struct.book], [1000 x %struct.book]* %1, i64 0, i64 %46
  %48 = getelementptr inbounds %struct.book, %struct.book* %47, i32 0, i32 1
  %49 = load i32, i32* %2, align 4
  %50 = sext i32 %49 to i64
  %51 = getelementptr inbounds [20 x i8], [20 x i8]* %48, i64 0, i64 %50
  %52 = load i8, i8* %51, align 1
  %53 = sext i8 %52 to i32
  %54 = icmp eq i32 %44, %53
  br i1 %54, label %55, label %56

55:                                               ; preds = %42
  br label %60

56:                                               ; preds = %42
  br label %57

57:                                               ; preds = %56
  %58 = load i32, i32* %3, align 4
  %59 = add nsw i32 %58, 1
  store i32 %59, i32* %3, align 4
  br label %39

60:                                               ; preds = %55, %39
  %61 = load i32, i32* %3, align 4
  %62 = sext i32 %61 to i64
  %63 = getelementptr inbounds [26 x i32], [26 x i32]* %10, i64 0, i64 %62
  %64 = load i32, i32* %63, align 4
  %65 = add nsw i32 %64, 1
  %66 = load i32, i32* %3, align 4
  %67 = sext i32 %66 to i64
  %68 = getelementptr inbounds [26 x i32], [26 x i32]* %10, i64 0, i64 %67
  store i32 %65, i32* %68, align 4
  br label %69

69:                                               ; preds = %60
  %70 = load i32, i32* %2, align 4
  %71 = add nsw i32 %70, 1
  store i32 %71, i32* %2, align 4
  br label %28

72:                                               ; preds = %28
  br label %73

73:                                               ; preds = %72
  %74 = load i32, i32* %5, align 4
  %75 = add nsw i32 %74, 1
  store i32 %75, i32* %5, align 4
  br label %13

76:                                               ; preds = %13
  store i32 0, i32* %9, align 4
  br label %77

77:                                               ; preds = %88, %76
  %78 = load i32, i32* %9, align 4
  %79 = icmp slt i32 %78, 26
  br i1 %79, label %80, label %91

80:                                               ; preds = %77
  %81 = load i32, i32* %9, align 4
  %82 = sext i32 %81 to i64
  %83 = getelementptr inbounds [26 x i32], [26 x i32]* %10, i64 0, i64 %82
  %84 = load i32, i32* %83, align 4
  %85 = load i32, i32* %9, align 4
  %86 = sext i32 %85 to i64
  %87 = getelementptr inbounds [26 x i32], [26 x i32]* %8, i64 0, i64 %86
  store i32 %84, i32* %87, align 4
  br label %88

88:                                               ; preds = %80
  %89 = load i32, i32* %9, align 4
  %90 = add nsw i32 %89, 1
  store i32 %90, i32* %9, align 4
  br label %77

91:                                               ; preds = %77
  %92 = getelementptr inbounds [26 x i32], [26 x i32]* %10, i64 0, i64 0
  %93 = load i32, i32* %92, align 16
  store i32 %93, i32* %6, align 4
  store i32 0, i32* %7, align 4
  br label %94

94:                                               ; preds = %110, %91
  %95 = load i32, i32* %7, align 4
  %96 = icmp slt i32 %95, 26
  br i1 %96, label %97, label %113

97:                                               ; preds = %94
  %98 = load i32, i32* %7, align 4
  %99 = sext i32 %98 to i64
  %100 = getelementptr inbounds [26 x i32], [26 x i32]* %10, i64 0, i64 %99
  %101 = load i32, i32* %100, align 4
  %102 = load i32, i32* %6, align 4
  %103 = icmp sgt i32 %101, %102
  br i1 %103, label %104, label %109

104:                                              ; preds = %97
  %105 = load i32, i32* %7, align 4
  %106 = sext i32 %105 to i64
  %107 = getelementptr inbounds [26 x i32], [26 x i32]* %10, i64 0, i64 %106
  %108 = load i32, i32* %107, align 4
  store i32 %108, i32* %6, align 4
  br label %109

109:                                              ; preds = %104, %97
  br label %110

110:                                              ; preds = %109
  %111 = load i32, i32* %7, align 4
  %112 = add nsw i32 %111, 1
  store i32 %112, i32* %7, align 4
  br label %94

113:                                              ; preds = %94
  store i32 0, i32* %9, align 4
  br label %114

114:                                              ; preds = %126, %113
  %115 = load i32, i32* %9, align 4
  %116 = icmp slt i32 %115, 26
  br i1 %116, label %117, label %129

117:                                              ; preds = %114
  %118 = load i32, i32* %9, align 4
  %119 = sext i32 %118 to i64
  %120 = getelementptr inbounds [26 x i32], [26 x i32]* %8, i64 0, i64 %119
  %121 = load i32, i32* %120, align 4
  %122 = load i32, i32* %6, align 4
  %123 = icmp eq i32 %121, %122
  br i1 %123, label %124, label %125

124:                                              ; preds = %117
  br label %129

125:                                              ; preds = %117
  br label %126

126:                                              ; preds = %125
  %127 = load i32, i32* %9, align 4
  %128 = add nsw i32 %127, 1
  store i32 %128, i32* %9, align 4
  br label %114

129:                                              ; preds = %124, %114
  %130 = load i32, i32* %9, align 4
  %131 = add nsw i32 65, %130
  %132 = call i32 (i8*, ...) @printf(i8* getelementptr inbounds ([4 x i8], [4 x i8]* @.str.2, i64 0, i64 0), i32 %131)
  %133 = load i32, i32* %6, align 4
  %134 = call i32 (i8*, ...) @printf(i8* getelementptr inbounds ([4 x i8], [4 x i8]* @.str.3, i64 0, i64 0), i32 %133)
  store i32 0, i32* %5, align 4
  br label %135

135:                                              ; preds = %175, %129
  %136 = load i32, i32* %5, align 4
  %137 = load i32, i32* %4, align 4
  %138 = icmp slt i32 %136, %137
  br i1 %138, label %139, label %178

139:                                              ; preds = %135
  store i32 0, i32* %2, align 4
  br label %140

140:                                              ; preds = %171, %139
  %141 = load i32, i32* %2, align 4
  %142 = sext i32 %141 to i64
  %143 = load i32, i32* %5, align 4
  %144 = sext i32 %143 to i64
  %145 = getelementptr inbounds [1000 x %struct.book], [1000 x %struct.book]* %1, i64 0, i64 %144
  %146 = getelementptr inbounds %struct.book, %struct.book* %145, i32 0, i32 1
  %147 = getelementptr inbounds [20 x i8], [20 x i8]* %146, i64 0, i64 0
  %148 = call i64 @strlen(i8* %147) #4
  %149 = icmp ult i64 %142, %148
  br i1 %149, label %150, label %174

150:                                              ; preds = %140
  %151 = load i32, i32* %9, align 4
  %152 = add nsw i32 65, %151
  %153 = load i32, i32* %5, align 4
  %154 = sext i32 %153 to i64
  %155 = getelementptr inbounds [1000 x %struct.book], [1000 x %struct.book]* %1, i64 0, i64 %154
  %156 = getelementptr inbounds %struct.book, %struct.book* %155, i32 0, i32 1
  %157 = load i32, i32* %2, align 4
  %158 = sext i32 %157 to i64
  %159 = getelementptr inbounds [20 x i8], [20 x i8]* %156, i64 0, i64 %158
  %160 = load i8, i8* %159, align 1
  %161 = sext i8 %160 to i32
  %162 = icmp eq i32 %152, %161
  br i1 %162, label %163, label %170

163:                                              ; preds = %150
  %164 = load i32, i32* %5, align 4
  %165 = sext i32 %164 to i64
  %166 = getelementptr inbounds [1000 x %struct.book], [1000 x %struct.book]* %1, i64 0, i64 %165
  %167 = getelementptr inbounds %struct.book, %struct.book* %166, i32 0, i32 0
  %168 = load i32, i32* %167, align 8
  %169 = call i32 (i8*, ...) @printf(i8* getelementptr inbounds ([4 x i8], [4 x i8]* @.str.3, i64 0, i64 0), i32 %168)
  br label %174

170:                                              ; preds = %150
  br label %171

171:                                              ; preds = %170
  %172 = load i32, i32* %2, align 4
  %173 = add nsw i32 %172, 1
  store i32 %173, i32* %2, align 4
  br label %140

174:                                              ; preds = %163, %140
  br label %175

175:                                              ; preds = %174
  %176 = load i32, i32* %5, align 4
  %177 = add nsw i32 %176, 1
  store i32 %177, i32* %5, align 4
  br label %135

178:                                              ; preds = %135
  ret void
}